target datalayout = "e-m:e-p270:32:32-p271:32:32-p272:64:64-i64:64-i128:128-f80:128-n8:16:32:64-S128"
target triple = "x86_64-pc-linux-gnu"

%struct.pmix_object_t = type { %union.pthread_mutex_t, ptr, i32, %struct.pmix_tma }
%struct.pmix_tma = type { ptr, ptr, ptr, ptr, ptr, ptr, ptr, ptr }
%union.pthread_mutex_t = type { %struct.__pthread_mutex_s }
%struct.__pthread_mutex_s = type { i32, i32, i32, i32, i32, i16, i16, %struct.__pthread_internal_list }
%struct.__pthread_internal_list = type { ptr, ptr }
%struct.pmix_proc = type { [256 x i8], i32 }
%struct.pmix_list_item_t = type { %struct.pmix_object_t, ptr, ptr, i32 }
%struct.pmix_event_hdlr_t = type { %struct.pmix_list_item_t, ptr, i64, i8, i8, ptr, %struct.pmix_proc, %struct.pmix_range_trkr_t, ptr, i64, ptr, ptr, ptr, i64 }
%struct.pmix_range_trkr_t = type { i8, ptr, i64 }

; Function Attrs: nounwind uwtable
define internal void @sevcon(ptr noundef %0) #0 {
  %2 = alloca ptr, align 8
  store ptr %0, ptr %2, align 8, !tbaa !15
  %3 = load ptr, ptr %2, align 8, !tbaa !15
  %4 = getelementptr inbounds nuw %struct.pmix_event_hdlr_t, ptr %3, i32 0, i32 1
  store ptr null, ptr %4, align 8, !tbaa !201
  %5 = load ptr, ptr %2, align 8, !tbaa !15
  %6 = getelementptr inbounds nuw %struct.pmix_event_hdlr_t, ptr %5, i32 0, i32 2
  store i64 4294967295, ptr %6, align 8, !tbaa !204
  %7 = load ptr, ptr %2, align 8, !tbaa !15
  %8 = getelementptr inbounds nuw %struct.pmix_event_hdlr_t, ptr %7, i32 0, i32 3
  store i8 0, ptr %8, align 8, !tbaa !263
  %9 = load ptr, ptr %2, align 8, !tbaa !15
  %10 = getelementptr inbounds nuw %struct.pmix_event_hdlr_t, ptr %9, i32 0, i32 4
  store i8 0, ptr %10, align 1, !tbaa !264
  %11 = load ptr, ptr %2, align 8, !tbaa !15
  %12 = getelementptr inbounds nuw %struct.pmix_event_hdlr_t, ptr %11, i32 0, i32 5
  store ptr null, ptr %12, align 8, !tbaa !265
  %13 = load ptr, ptr %2, align 8, !tbaa !15
  %14 = getelementptr inbounds nuw %struct.pmix_event_hdlr_t, ptr %13, i32 0, i32 7
  %15 = getelementptr inbounds nuw %struct.pmix_range_trkr_t, ptr %14, i32 0, i32 0
  store i8 0, ptr %15, align 8, !tbaa !266
  %16 = load ptr, ptr %2, align 8, !tbaa !15
  %17 = getelementptr inbounds nuw %struct.pmix_event_hdlr_t, ptr %16, i32 0, i32 7
  %18 = getelementptr inbounds nuw %struct.pmix_range_trkr_t, ptr %17, i32 0, i32 1
  store ptr null, ptr %18, align 8, !tbaa !267
  %19 = load ptr, ptr %2, align 8, !tbaa !15
  %20 = getelementptr inbounds nuw %struct.pmix_event_hdlr_t, ptr %19, i32 0, i32 7
  %21 = getelementptr inbounds nuw %struct.pmix_range_trkr_t, ptr %20, i32 0, i32 2
  store i64 0, ptr %21, align 8, !tbaa !268
  %22 = load ptr, ptr %2, align 8, !tbaa !15
  %23 = getelementptr inbounds nuw %struct.pmix_event_hdlr_t, ptr %22, i32 0, i32 8
  store ptr null, ptr %23, align 8, !tbaa !184
  %24 = load ptr, ptr %2, align 8, !tbaa !15
  %25 = getelementptr inbounds nuw %struct.pmix_event_hdlr_t, ptr %24, i32 0, i32 9
  store i64 0, ptr %25, align 8, !tbaa !185
  %26 = load ptr, ptr %2, align 8, !tbaa !15
  %27 = getelementptr inbounds nuw %struct.pmix_event_hdlr_t, ptr %26, i32 0, i32 10
  store ptr null, ptr %27, align 8, !tbaa !203
  %28 = load ptr, ptr %2, align 8, !tbaa !15
  %29 = getelementptr inbounds nuw %struct.pmix_event_hdlr_t, ptr %28, i32 0, i32 11
  store ptr null, ptr %29, align 8, !tbaa !202
  %30 = load ptr, ptr %2, align 8, !tbaa !15
  %31 = getelementptr inbounds nuw %struct.pmix_event_hdlr_t, ptr %30, i32 0, i32 12
  store ptr null, ptr %31, align 8, !tbaa !183
  %32 = load ptr, ptr %2, align 8, !tbaa !15
  %33 = getelementptr inbounds nuw %struct.pmix_event_hdlr_t, ptr %32, i32 0, i32 13
  store i64 0, ptr %33, align 8, !tbaa !180
  ret void
}