; Function Attrs: mustprogress nofree norecurse nosync nounwind willreturn memory(argmem: write) uwtable
define internal void @sevcon(ptr noundef writeonly captures(none) initializes((144, 162), (168, 176), (440, 441), (448, 512)) %0) #9 {
  %2 = getelementptr inbounds nuw i8, ptr %0, i64 144
  store ptr null, ptr %2, align 8, !tbaa !179
  %3 = getelementptr inbounds nuw i8, ptr %0, i64 152
  store i64 4294967295, ptr %3, align 8, !tbaa !182
  %4 = getelementptr inbounds nuw i8, ptr %0, i64 160
  store i8 0, ptr %4, align 8, !tbaa !230
  %5 = getelementptr inbounds nuw i8, ptr %0, i64 161
  store i8 0, ptr %5, align 1, !tbaa !231
  %6 = getelementptr inbounds nuw i8, ptr %0, i64 168
  store ptr null, ptr %6, align 8, !tbaa !232
  %7 = getelementptr inbounds nuw i8, ptr %0, i64 440
  store i8 0, ptr %7, align 8, !tbaa !233
  %8 = getelementptr inbounds nuw i8, ptr %0, i64 448
  tail call void @llvm.memset.p0.i64(ptr noundef nonnull align 8 dereferenceable(64) %8, i8 0, i64 64, i1 false)
  ret void
}